; Function Attrs: mustprogress uwtable
define dso_local void @_ZN3tev10UberShader4drawERKN7nanogui5ArrayIfLm2EEES5_PNS1_7TextureERKNS1_6MatrixIfLm3EEEfffbNS_8ETonemapERKNSt3__18optionalINS_3BoxIiLj2EEEEE(ptr noundef nonnull align 8 dereferenceable(40) %0, ptr noundef nonnull align 4 dereferenceable(8) %1, ptr noundef nonnull align 4 dereferenceable(8) %2, ptr noundef %3, ptr nocapture noundef nonnull readonly align 4 dereferenceable(36) %4, float noundef %5, float noundef %6, float noundef %7, i1 noundef zeroext %8, i32 noundef %9, ptr nocapture noundef nonnull readonly align 4 dereferenceable(17) %10) local_unnamed_addr #7 align 2 {
  %12 = alloca %"struct.nanogui::Matrix", align 4
  call void @llvm.memset.p0.i64(ptr noundef nonnull align 4 dereferenceable(36) %12, i8 0, i64 36, i1 false)
  br label %13

13:                                               ; preds = %13, %11
  %.05.i = phi i64 [ 0, %11 ], [ %15, %13 ]
  %14 = getelementptr inbounds [3 x [3 x float]], ptr %12, i64 0, i64 %.05.i, i64 %.05.i
  store float 0.000000e+00, ptr %14, align 4
  %15 = add nuw nsw i64 %.05.i, 1
  %exitcond.not.i = icmp eq i64 %15, 3
  br i1 %exitcond.not.i, label %_ZN7nanogui6MatrixIfLm3EEC2Ef.exit, label %13, !llvm.loop !28

_ZN7nanogui6MatrixIfLm3EEC2Ef.exit:               ; preds = %13
  call void @_ZN3tev10UberShader4drawERKN7nanogui5ArrayIfLm2EEES5_PNS1_7TextureERKNS1_6MatrixIfLm3EEES7_SB_fffbNS_8ETonemapENS_7EMetricERKNSt3__18optionalINS_3BoxIiLj2EEEEE(ptr noundef nonnull align 8 dereferenceable(40) %0, ptr noundef nonnull align 4 dereferenceable(8) %1, ptr noundef nonnull align 4 dereferenceable(8) %2, ptr noundef %3, ptr noundef nonnull align 4 dereferenceable(36) %4, ptr noundef null, ptr noundef nonnull align 4 dereferenceable(36) %12, float noundef %5, float noundef %6, float noundef %7, i1 noundef zeroext %8, i32 noundef %9, i32 noundef 0, ptr noundef nonnull align 4 dereferenceable(17) %10)
  ret void
}